target datalayout = "e-m:e-p270:32:32-p271:32:32-p272:64:64-i64:64-i128:128-f80:128-n8:16:32:64-S128"
target triple = "x86_64-pc-linux-gnu"

%"struct.duckdb_zstd::ldmParams_t" = type { i32, i32, i32, i32, i32, i32 }

; Function Attrs: inlinehint mustprogress nounwind uwtable
define internal noundef i64 @_ZN11duckdb_zstdL21ZSTD_cwksp_alloc_sizeEm(i64 noundef %0) #3 {
  %2 = alloca i64, align 8
  %3 = alloca i64, align 8
  store i64 %0, ptr %3, align 8, !tbaa !18
  %4 = load i64, ptr %3, align 8, !tbaa !18
  %5 = icmp eq i64 %4, 0
  br i1 %5, label %6, label %7

6:                                                ; preds = %1
  store i64 0, ptr %2, align 8
  br label %9

7:                                                ; preds = %1
  %8 = load i64, ptr %3, align 8, !tbaa !18
  store i64 %8, ptr %2, align 8
  br label %9

9:                                                ; preds = %7, %6
  %10 = load i64, ptr %2, align 8
  ret i64 %10
}

; Function Attrs: mustprogress uwtable
define noundef i64 @_ZN11duckdb_zstd21ZSTD_ldm_getTableSizeENS_11ldmParams_tE(ptr noundef byval(%"struct.duckdb_zstd::ldmParams_t") align 8 %0) #1 {
  %2 = alloca i64, align 8
  %3 = alloca i64, align 8
  %4 = alloca i64, align 8
  %5 = alloca i64, align 8
  call void @llvm.lifetime.start.p0(i64 8, ptr %2) #13
  %6 = getelementptr inbounds nuw %"struct.duckdb_zstd::ldmParams_t", ptr %0, i32 0, i32 1
  %7 = load i32, ptr %6, align 4, !tbaa !16
  %8 = zext i32 %7 to i64
  %9 = shl i64 1, %8
  store i64 %9, ptr %2, align 8, !tbaa !18
  call void @llvm.lifetime.start.p0(i64 8, ptr %3) #13
  %10 = getelementptr inbounds nuw %"struct.duckdb_zstd::ldmParams_t", ptr %0, i32 0, i32 2
  %11 = load i32, ptr %10, align 8, !tbaa !14
  %12 = getelementptr inbounds nuw %"struct.duckdb_zstd::ldmParams_t", ptr %0, i32 0, i32 1
  %13 = load i32, ptr %12, align 4, !tbaa !16
  %14 = icmp ult i32 %11, %13
  br i1 %14, label %15, label %18

15:                                               ; preds = %1
  %16 = getelementptr inbounds nuw %"struct.duckdb_zstd::ldmParams_t", ptr %0, i32 0, i32 2
  %17 = load i32, ptr %16, align 8, !tbaa !14
  br label %21

18:                                               ; preds = %1
  %19 = getelementptr inbounds nuw %"struct.duckdb_zstd::ldmParams_t", ptr %0, i32 0, i32 1
  %20 = load i32, ptr %19, align 4, !tbaa !16
  br label %21

21:                                               ; preds = %18, %15
  %22 = phi i32 [ %17, %15 ], [ %20, %18 ]
  %23 = zext i32 %22 to i64
  store i64 %23, ptr %3, align 8, !tbaa !18
  call void @llvm.lifetime.start.p0(i64 8, ptr %4) #13
  %24 = getelementptr inbounds nuw %"struct.duckdb_zstd::ldmParams_t", ptr %0, i32 0, i32 1
  %25 = load i32, ptr %24, align 4, !tbaa !16
  %26 = zext i32 %25 to i64
  %27 = load i64, ptr %3, align 8, !tbaa !18
  %28 = sub i64 %26, %27
  %29 = shl i64 1, %28
  store i64 %29, ptr %4, align 8, !tbaa !18
  call void @llvm.lifetime.start.p0(i64 8, ptr %5) #13
  %30 = load i64, ptr %4, align 8, !tbaa !18
  %31 = call noundef i64 @_ZN11duckdb_zstdL21ZSTD_cwksp_alloc_sizeEm(i64 noundef %30)
  %32 = load i64, ptr %2, align 8, !tbaa !18
  %33 = mul i64 %32, 8
  %34 = call noundef i64 @_ZN11duckdb_zstdL21ZSTD_cwksp_alloc_sizeEm(i64 noundef %33)
  %35 = add i64 %31, %34
  store i64 %35, ptr %5, align 8, !tbaa !18
  %36 = getelementptr inbounds nuw %"struct.duckdb_zstd::ldmParams_t", ptr %0, i32 0, i32 0
  %37 = load i32, ptr %36, align 8, !tbaa !20
  %38 = icmp eq i32 %37, 1
  br i1 %38, label %39, label %41

39:                                               ; preds = %21
  %40 = load i64, ptr %5, align 8, !tbaa !18
  br label %42

41:                                               ; preds = %21
  br label %42

42:                                               ; preds = %41, %39
  %43 = phi i64 [ %40, %39 ], [ 0, %41 ]
  call void @llvm.lifetime.end.p0(i64 8, ptr %5) #13
  call void @llvm.lifetime.end.p0(i64 8, ptr %4) #13
  call void @llvm.lifetime.end.p0(i64 8, ptr %3) #13
  call void @llvm.lifetime.end.p0(i64 8, ptr %2) #13
  ret i64 %43
}